target datalayout = "e-m:e-p270:32:32-p271:32:32-p272:64:64-i64:64-i128:128-f80:128-n8:16:32:64-S128"
target triple = "x86_64-pc-linux-gnu"

%struct.ssl_st = type { i32, i16, i16, ptr, ptr, ptr, ptr, ptr, i32, i32, ptr, ptr, i32, i32, ptr, ptr, ptr, ptr, ptr, ptr, ptr, ptr, i32, i32, [32 x i8], ptr, ptr, ptr, ptr, ptr, ptr, ptr, i64, %struct.crypto_ex_data_st, ptr, i32, i32, i32, i32, i16, ptr, i32, i64, ptr, ptr, ptr, ptr, ptr, ptr, i32, i32, ptr, ptr, i8, i8, i32 }
%struct.crypto_ex_data_st = type { ptr }
%struct.ssl_protocol_method_st = type { i8, ptr, ptr, ptr, ptr, ptr, ptr, ptr, ptr, ptr, ptr, ptr, i32, ptr, ptr }
%struct.ssl_session_st = type { i32, i32, i32, i32, [48 x i8], i32, [32 x i8], i32, [32 x i8], ptr, ptr, ptr, i64, i64, i64, ptr, %struct.crypto_ex_data_st, ptr, ptr, ptr, ptr, i64, i64, ptr, i64, ptr, [32 x i8], [64 x i8], i32, i32, i8 }
%struct.cbs_st = type { ptr, i64 }

@.str = private unnamed_addr constant [117 x i8] c"generated/home/dtcxzyw/WorkSpace/Projects/compilers/llvm-opt-benchmark/bench/libquic/libquic/boringssl/ssl/s3_clnt.c\00", align 1

; Function Attrs: nounwind uwtable
define hidden i32 @ssl3_get_new_session_ticket(ptr noundef %0) #0 {
  %2 = alloca i32, align 4
  %3 = alloca ptr, align 8
  %4 = alloca i32, align 4
  %5 = alloca i32, align 4
  %6 = alloca i64, align 8
  %7 = alloca i32, align 4
  %8 = alloca %struct.cbs_st, align 8
  %9 = alloca %struct.cbs_st, align 8
  %10 = alloca i32, align 4
  %11 = alloca ptr, align 8
  %12 = alloca i64, align 8
  %13 = alloca ptr, align 8
  store ptr %0, ptr %3, align 8, !tbaa !6
  call void @llvm.lifetime.start.p0(i64 4, ptr %4) #8
  call void @llvm.lifetime.start.p0(i64 4, ptr %5) #8
  call void @llvm.lifetime.start.p0(i64 8, ptr %6) #8
  %14 = load ptr, ptr %3, align 8, !tbaa !6
  %15 = getelementptr inbounds nuw %struct.ssl_st, ptr %14, i32 0, i32 3
  %16 = load ptr, ptr %15, align 8, !tbaa !74
  %17 = getelementptr inbounds nuw %struct.ssl_protocol_method_st, ptr %16, i32 0, i32 5
  %18 = load ptr, ptr %17, align 8, !tbaa !109
  %19 = load ptr, ptr %3, align 8, !tbaa !6
  %20 = call i64 %18(ptr noundef %19, i32 noundef 4576, i32 noundef 4577, i32 noundef 4, i64 noundef 16384, i32 noundef 1, ptr noundef %4)
  store i64 %20, ptr %6, align 8, !tbaa !106
  %21 = load i32, ptr %4, align 4, !tbaa !14
  %22 = icmp ne i32 %21, 0
  br i1 %22, label %26, label %23

23:                                               ; preds = %1
  %24 = load i64, ptr %6, align 8, !tbaa !106
  %25 = trunc i64 %24 to i32
  store i32 %25, ptr %2, align 4
  store i32 1, ptr %7, align 4
  br label %119

26:                                               ; preds = %1
  call void @llvm.lifetime.start.p0(i64 16, ptr %8) #8
  call void @llvm.lifetime.start.p0(i64 16, ptr %9) #8
  call void @llvm.lifetime.start.p0(i64 4, ptr %10) #8
  %27 = load ptr, ptr %3, align 8, !tbaa !6
  %28 = getelementptr inbounds nuw %struct.ssl_st, ptr %27, i32 0, i32 11
  %29 = load ptr, ptr %28, align 8, !tbaa !110
  %30 = load i64, ptr %6, align 8, !tbaa !106
  call void @CBS_init(ptr noundef %8, ptr noundef %29, i64 noundef %30)
  %31 = call i32 @CBS_get_u32(ptr noundef %8, ptr noundef %10)
  %32 = icmp ne i32 %31, 0
  br i1 %32, label %33, label %39

33:                                               ; preds = %26
  %34 = call i32 @CBS_get_u16_length_prefixed(ptr noundef %8, ptr noundef %9)
  %35 = icmp ne i32 %34, 0
  br i1 %35, label %36, label %39

36:                                               ; preds = %33
  %37 = call i64 @CBS_len(ptr noundef %8)
  %38 = icmp ne i64 %37, 0
  br i1 %38, label %39, label %40

39:                                               ; preds = %36, %33, %26
  store i32 50, ptr %5, align 4, !tbaa !14
  call void @ERR_put_error(i32 noundef 16, i32 noundef 0, i32 noundef 137, ptr noundef @.str, i32 noundef 1427)
  br label %113

40:                                               ; preds = %36
  %41 = call i64 @CBS_len(ptr noundef %9)
  %42 = icmp eq i64 %41, 0
  br i1 %42, label %43, label %46

43:                                               ; preds = %40
  %44 = load ptr, ptr %3, align 8, !tbaa !6
  %45 = getelementptr inbounds nuw %struct.ssl_st, ptr %44, i32 0, i32 41
  store i32 0, ptr %45, align 8, !tbaa !53
  store i32 1, ptr %2, align 4
  store i32 1, ptr %7, align 4
  br label %118

46:                                               ; preds = %40
  %47 = load ptr, ptr %3, align 8, !tbaa !6
  %48 = getelementptr inbounds nuw %struct.ssl_st, ptr %47, i32 0, i32 54
  %49 = load i8, ptr %48, align 1
  %50 = and i8 %49, 1
  %51 = zext i8 %50 to i32
  %52 = icmp ne i32 %51, 0
  br i1 %52, label %53, label %79

53:                                               ; preds = %46
  call void @llvm.lifetime.start.p0(i64 8, ptr %11) #8
  call void @llvm.lifetime.start.p0(i64 8, ptr %12) #8
  %54 = load ptr, ptr %3, align 8, !tbaa !6
  %55 = getelementptr inbounds nuw %struct.ssl_st, ptr %54, i32 0, i32 25
  %56 = load ptr, ptr %55, align 8, !tbaa !86
  %57 = call i32 @SSL_SESSION_to_bytes_for_ticket(ptr noundef %56, ptr noundef %11, ptr noundef %12)
  %58 = icmp ne i32 %57, 0
  br i1 %58, label %60, label %59

59:                                               ; preds = %53
  store i32 3, ptr %7, align 4
  br label %76

60:                                               ; preds = %53
  call void @llvm.lifetime.start.p0(i64 8, ptr %13) #8
  %61 = load ptr, ptr %11, align 8, !tbaa !133
  %62 = load i64, ptr %12, align 8, !tbaa !106
  %63 = call ptr @SSL_SESSION_from_bytes(ptr noundef %61, i64 noundef %62)
  store ptr %63, ptr %13, align 8, !tbaa !186
  %64 = load ptr, ptr %11, align 8, !tbaa !133
  call void @free(ptr noundef %64) #8
  %65 = load ptr, ptr %13, align 8, !tbaa !186
  %66 = icmp eq ptr %65, null
  br i1 %66, label %67, label %68

67:                                               ; preds = %60
  call void @ERR_put_error(i32 noundef 16, i32 noundef 0, i32 noundef 68, ptr noundef @.str, i32 noundef 1453)
  store i32 3, ptr %7, align 4
  br label %75

68:                                               ; preds = %60
  %69 = load ptr, ptr %3, align 8, !tbaa !6
  %70 = getelementptr inbounds nuw %struct.ssl_st, ptr %69, i32 0, i32 25
  %71 = load ptr, ptr %70, align 8, !tbaa !86
  call void @SSL_SESSION_free(ptr noundef %71)
  %72 = load ptr, ptr %13, align 8, !tbaa !186
  %73 = load ptr, ptr %3, align 8, !tbaa !6
  %74 = getelementptr inbounds nuw %struct.ssl_st, ptr %73, i32 0, i32 25
  store ptr %72, ptr %74, align 8, !tbaa !86
  store i32 0, ptr %7, align 4
  br label %75

75:                                               ; preds = %67, %68
  call void @llvm.lifetime.end.p0(i64 8, ptr %13) #8
  br label %76

76:                                               ; preds = %59, %75
  call void @llvm.lifetime.end.p0(i64 8, ptr %12) #8
  call void @llvm.lifetime.end.p0(i64 8, ptr %11) #8
  %77 = load i32, ptr %7, align 4
  switch i32 %77, label %118 [
    i32 0, label %78
    i32 3, label %117
  ]

78:                                               ; preds = %76
  br label %79

79:                                               ; preds = %78, %46
  %80 = load ptr, ptr %3, align 8, !tbaa !6
  %81 = getelementptr inbounds nuw %struct.ssl_st, ptr %80, i32 0, i32 25
  %82 = load ptr, ptr %81, align 8, !tbaa !86
  %83 = getelementptr inbounds nuw %struct.ssl_session_st, ptr %82, i32 0, i32 20
  %84 = load ptr, ptr %3, align 8, !tbaa !6
  %85 = getelementptr inbounds nuw %struct.ssl_st, ptr %84, i32 0, i32 25
  %86 = load ptr, ptr %85, align 8, !tbaa !86
  %87 = getelementptr inbounds nuw %struct.ssl_session_st, ptr %86, i32 0, i32 21
  %88 = call i32 @CBS_stow(ptr noundef %9, ptr noundef %83, ptr noundef %87)
  %89 = icmp ne i32 %88, 0
  br i1 %89, label %91, label %90

90:                                               ; preds = %79
  call void @ERR_put_error(i32 noundef 16, i32 noundef 0, i32 noundef 65, ptr noundef @.str, i32 noundef 1463)
  br label %117

91:                                               ; preds = %79
  %92 = load i32, ptr %10, align 4, !tbaa !14
  %93 = load ptr, ptr %3, align 8, !tbaa !6
  %94 = getelementptr inbounds nuw %struct.ssl_st, ptr %93, i32 0, i32 25
  %95 = load ptr, ptr %94, align 8, !tbaa !86
  %96 = getelementptr inbounds nuw %struct.ssl_session_st, ptr %95, i32 0, i32 29
  store i32 %92, ptr %96, align 4, !tbaa !187
  %97 = call ptr @CBS_data(ptr noundef %9)
  %98 = call i64 @CBS_len(ptr noundef %9)
  %99 = load ptr, ptr %3, align 8, !tbaa !6
  %100 = getelementptr inbounds nuw %struct.ssl_st, ptr %99, i32 0, i32 25
  %101 = load ptr, ptr %100, align 8, !tbaa !86
  %102 = getelementptr inbounds nuw %struct.ssl_session_st, ptr %101, i32 0, i32 6
  %103 = getelementptr inbounds [32 x i8], ptr %102, i64 0, i64 0
  %104 = load ptr, ptr %3, align 8, !tbaa !6
  %105 = getelementptr inbounds nuw %struct.ssl_st, ptr %104, i32 0, i32 25
  %106 = load ptr, ptr %105, align 8, !tbaa !86
  %107 = getelementptr inbounds nuw %struct.ssl_session_st, ptr %106, i32 0, i32 5
  %108 = call ptr @EVP_sha256()
  %109 = call i32 @EVP_Digest(ptr noundef %97, i64 noundef %98, ptr noundef %103, ptr noundef %107, ptr noundef %108, ptr noundef null)
  %110 = icmp ne i32 %109, 0
  br i1 %110, label %112, label %111

111:                                              ; preds = %91
  br label %117

112:                                              ; preds = %91
  store i32 1, ptr %2, align 4
  store i32 1, ptr %7, align 4
  br label %118

113:                                              ; preds = %39
  %114 = load ptr, ptr %3, align 8, !tbaa !6
  %115 = load i32, ptr %5, align 4, !tbaa !14
  %116 = call i32 @ssl3_send_alert(ptr noundef %114, i32 noundef 2, i32 noundef %115)
  br label %117

117:                                              ; preds = %113, %76, %111, %90
  store i32 -1, ptr %2, align 4
  store i32 1, ptr %7, align 4
  br label %118

118:                                              ; preds = %117, %112, %76, %43
  call void @llvm.lifetime.end.p0(i64 4, ptr %10) #8
  call void @llvm.lifetime.end.p0(i64 16, ptr %9) #8
  call void @llvm.lifetime.end.p0(i64 16, ptr %8) #8
  br label %119

119:                                              ; preds = %118, %23
  call void @llvm.lifetime.end.p0(i64 8, ptr %6) #8
  call void @llvm.lifetime.end.p0(i64 4, ptr %5) #8
  call void @llvm.lifetime.end.p0(i64 4, ptr %4) #8
  %120 = load i32, ptr %2, align 4
  ret i32 %120
}