; Function Attrs: nounwind uwtable
define hidden i32 @ssl3_get_new_session_ticket(ptr noundef %0) local_unnamed_addr #0 {
  %2 = alloca i32, align 4
  %3 = alloca %struct.cbs_st, align 8
  %4 = alloca %struct.cbs_st, align 8
  %5 = alloca i32, align 4
  %6 = alloca ptr, align 8
  %7 = alloca i64, align 8
  call void @llvm.lifetime.start.p0(i64 4, ptr nonnull %2) #11
  %8 = getelementptr inbounds nuw i8, ptr %0, i64 8
  %9 = load ptr, ptr %8, align 8, !tbaa !70
  %10 = getelementptr inbounds nuw i8, ptr %9, i64 40
  %11 = load ptr, ptr %10, align 8, !tbaa !71
  %12 = call i64 %11(ptr noundef %0, i32 noundef 4576, i32 noundef 4577, i32 noundef 4, i64 noundef 16384, i32 noundef 1, ptr noundef nonnull %2) #11
  %13 = load i32, ptr %2, align 4, !tbaa !73
  %.not = icmp eq i32 %13, 0
  br i1 %.not, label %14, label %16

14:                                               ; preds = %1
  %15 = trunc i64 %12 to i32
  br label %68

16:                                               ; preds = %1
  call void @llvm.lifetime.start.p0(i64 16, ptr nonnull %3) #11
  call void @llvm.lifetime.start.p0(i64 16, ptr nonnull %4) #11
  call void @llvm.lifetime.start.p0(i64 4, ptr nonnull %5) #11
  %17 = getelementptr inbounds nuw i8, ptr %0, i64 64
  %18 = load ptr, ptr %17, align 8, !tbaa !107
  call void @CBS_init(ptr noundef nonnull %3, ptr noundef %18, i64 noundef %12) #11
  %19 = call i32 @CBS_get_u32(ptr noundef nonnull %3, ptr noundef nonnull %5) #11
  %.not23 = icmp eq i32 %19, 0
  br i1 %.not23, label %24, label %20

20:                                               ; preds = %16
  %21 = call i32 @CBS_get_u16_length_prefixed(ptr noundef nonnull %3, ptr noundef nonnull %4) #11
  %.not24 = icmp eq i32 %21, 0
  br i1 %.not24, label %24, label %22

22:                                               ; preds = %20
  %23 = call i64 @CBS_len(ptr noundef nonnull %3) #11
  %.not25 = icmp eq i64 %23, 0
  br i1 %.not25, label %26, label %24

24:                                               ; preds = %22, %20, %16
  call void @ERR_put_error(i32 noundef 16, i32 noundef 0, i32 noundef 137, ptr noundef nonnull @.str, i32 noundef 1427) #11
  %25 = call i32 @ssl3_send_alert(ptr noundef nonnull %0, i32 noundef 2, i32 noundef 50) #11
  br label %66

26:                                               ; preds = %22
  %27 = call i64 @CBS_len(ptr noundef nonnull %4) #11
  %28 = icmp eq i64 %27, 0
  br i1 %28, label %29, label %31

29:                                               ; preds = %26
  %30 = getelementptr inbounds nuw i8, ptr %0, i64 296
  store i32 0, ptr %30, align 8, !tbaa !48
  br label %67

31:                                               ; preds = %26
  %32 = getelementptr inbounds nuw i8, ptr %0, i64 385
  %33 = load i8, ptr %32, align 1
  %34 = and i8 %33, 1
  %.not26 = icmp eq i8 %34, 0
  br i1 %.not26, label %._crit_edge, label %35

._crit_edge:                                      ; preds = %31
  %.phi.trans.insert = getelementptr inbounds nuw i8, ptr %0, i64 184
  %.pre = load ptr, ptr %.phi.trans.insert, align 8, !tbaa !64
  br label %48

35:                                               ; preds = %31
  call void @llvm.lifetime.start.p0(i64 8, ptr nonnull %6) #11
  call void @llvm.lifetime.start.p0(i64 8, ptr nonnull %7) #11
  %36 = getelementptr inbounds nuw i8, ptr %0, i64 184
  %37 = load ptr, ptr %36, align 8, !tbaa !64
  %38 = call i32 @SSL_SESSION_to_bytes_for_ticket(ptr noundef %37, ptr noundef nonnull %6, ptr noundef nonnull %7) #11
  %.not27 = icmp eq i32 %38, 0
  br i1 %.not27, label %.thread, label %39

39:                                               ; preds = %35
  %40 = load ptr, ptr %6, align 8, !tbaa !126
  %41 = load i64, ptr %7, align 8, !tbaa !105
  %42 = call ptr @SSL_SESSION_from_bytes(ptr noundef %40, i64 noundef %41) #11
  %43 = load ptr, ptr %6, align 8, !tbaa !126
  call void @free(ptr noundef %43) #11
  %44 = icmp eq ptr %42, null
  br i1 %44, label %45, label %46

45:                                               ; preds = %39
  call void @ERR_put_error(i32 noundef 16, i32 noundef 0, i32 noundef 68, ptr noundef nonnull @.str, i32 noundef 1453) #11
  br label %.thread

.thread:                                          ; preds = %35, %45
  call void @llvm.lifetime.end.p0(i64 8, ptr nonnull %7) #11
  call void @llvm.lifetime.end.p0(i64 8, ptr nonnull %6) #11
  br label %66

46:                                               ; preds = %39
  %47 = load ptr, ptr %36, align 8, !tbaa !64
  call void @SSL_SESSION_free(ptr noundef %47) #11
  store ptr %42, ptr %36, align 8, !tbaa !64
  call void @llvm.lifetime.end.p0(i64 8, ptr nonnull %7) #11
  call void @llvm.lifetime.end.p0(i64 8, ptr nonnull %6) #11
  br label %48

48:                                               ; preds = %._crit_edge, %46
  %49 = phi ptr [ %.pre, %._crit_edge ], [ %42, %46 ]
  %50 = getelementptr inbounds nuw i8, ptr %49, i64 224
  %51 = getelementptr inbounds nuw i8, ptr %49, i64 232
  %52 = call i32 @CBS_stow(ptr noundef nonnull %4, ptr noundef nonnull %50, ptr noundef nonnull %51) #11
  %.not28 = icmp eq i32 %52, 0
  br i1 %.not28, label %53, label %54

53:                                               ; preds = %48
  call void @ERR_put_error(i32 noundef 16, i32 noundef 0, i32 noundef 65, ptr noundef nonnull @.str, i32 noundef 1463) #11
  br label %66

54:                                               ; preds = %48
  %55 = getelementptr inbounds nuw i8, ptr %0, i64 184
  %56 = load i32, ptr %5, align 4, !tbaa !73
  %57 = load ptr, ptr %55, align 8, !tbaa !64
  %58 = getelementptr inbounds nuw i8, ptr %57, i64 372
  store i32 %56, ptr %58, align 4, !tbaa !162
  %59 = call ptr @CBS_data(ptr noundef nonnull %4) #11
  %60 = call i64 @CBS_len(ptr noundef nonnull %4) #11
  %61 = load ptr, ptr %55, align 8, !tbaa !64
  %62 = getelementptr inbounds nuw i8, ptr %61, i64 68
  %63 = getelementptr inbounds nuw i8, ptr %61, i64 64
  %64 = call ptr @EVP_sha256() #11
  %65 = call i32 @EVP_Digest(ptr noundef %59, i64 noundef %60, ptr noundef nonnull %62, ptr noundef nonnull %63, ptr noundef %64, ptr noundef null) #11
  %.not29 = icmp eq i32 %65, 0
  br i1 %.not29, label %66, label %67

66:                                               ; preds = %.thread, %54, %24, %53
  br label %67

67:                                               ; preds = %54, %66, %29
  %.1 = phi i32 [ -1, %66 ], [ 1, %29 ], [ 1, %54 ]
  call void @llvm.lifetime.end.p0(i64 4, ptr nonnull %5) #11
  call void @llvm.lifetime.end.p0(i64 16, ptr nonnull %4) #11
  call void @llvm.lifetime.end.p0(i64 16, ptr nonnull %3) #11
  br label %68

68:                                               ; preds = %67, %14
  %.0 = phi i32 [ %.1, %67 ], [ %15, %14 ]
  call void @llvm.lifetime.end.p0(i64 4, ptr nonnull %2) #11
  ret i32 %.0
}